target datalayout = "e-m:e-p270:32:32-p271:32:32-p272:64:64-i64:64-i128:128-f80:128-n8:16:32:64-S128"
target triple = "x86_64-unknown-linux-gnu"

; Function Attrs: mustprogress nounwind uwtable
define hidden void @_ZN6Assimp11MDLImporter11FreePaletteEPKh(ptr noundef nonnull align 8 dereferenceable(158) %this, ptr noundef %szColorMap) #0 align 2 {
entry:
  %this.addr = alloca ptr, align 8
  %szColorMap.addr = alloca ptr, align 8
  store ptr %this, ptr %this.addr, align 8
  store ptr %szColorMap, ptr %szColorMap.addr, align 8
  %0 = load ptr, ptr %szColorMap.addr, align 8
  %cmp = icmp ne ptr %0, @_ZL21g_aclrDefaultColorMap
  br i1 %cmp, label %if.then, label %if.end

if.then:                                          ; preds = %entry
  %1 = load ptr, ptr %szColorMap.addr, align 8
  %isnull = icmp eq ptr %1, null
  br i1 %isnull, label %delete.end, label %delete.notnull

delete.notnull:                                   ; preds = %if.then
  call void @_ZdaPv(ptr noundef %1) #18
  br label %delete.end

delete.end:                                       ; preds = %delete.notnull, %if.then
  br label %if.end

if.end:                                           ; preds = %delete.end, %entry
  ret void
}