; Function Attrs: mustprogress nounwind uwtable
define hidden void @_ZN6Assimp11MDLImporter11FreePaletteEPKh(ptr nocapture noundef nonnull readnone align 8 dereferenceable(158) %this, ptr noundef %szColorMap) local_unnamed_addr #4 align 2 {
entry:
  %cmp.not = icmp eq ptr %szColorMap, @_ZL21g_aclrDefaultColorMap
  %isnull = icmp eq ptr %szColorMap, null
  %or.cond = or i1 %cmp.not, %isnull
  br i1 %or.cond, label %if.end, label %delete.notnull

delete.notnull:                                   ; preds = %entry
  tail call void @_ZdaPv(ptr noundef %szColorMap) #18
  br label %if.end

if.end:                                           ; preds = %delete.notnull, %entry
  ret void
}